; Function Attrs: nounwind sspstrong uwtable
define dso_local noundef zeroext i1 @scsi_sense_buf_is_guest_recoverable(ptr noundef readonly captures(none) %in_buf, i64 noundef %in_len) local_unnamed_addr #1 {
entry:
  %cmp = icmp eq i64 %in_len, 0
  br i1 %cmp, label %return, label %if.end

if.end:                                           ; preds = %entry
  %conv = trunc i64 %in_len to i32
  %cmp.i = icmp sgt i32 %conv, 0
  br i1 %cmp.i, label %if.end.i, label %if.else.i

if.else.i:                                        ; preds = %if.end
  tail call void @__assert_fail(ptr noundef nonnull @.str, ptr noundef nonnull @.str.1, i32 noundef 100, ptr noundef nonnull @__PRETTY_FUNCTION__.scsi_parse_sense_buf) #11
  unreachable

if.end.i:                                         ; preds = %if.end
  %0 = load i8, ptr %in_buf, align 1
  %1 = and i8 %0, 2
  %cmp1.i = icmp eq i8 %1, 0
  br i1 %cmp1.i, label %if.then3.i, label %if.else11.i

if.then3.i:                                       ; preds = %if.end.i
  %cmp4.i = icmp samesign ult i32 %conv, 14
  br i1 %cmp4.i, label %return, label %scsi_parse_sense_buf.exit

if.else11.i:                                      ; preds = %if.end.i
  %cmp12.i = icmp samesign ult i32 %conv, 4
  br i1 %cmp12.i, label %return, label %scsi_parse_sense_buf.exit

scsi_parse_sense_buf.exit:                        ; preds = %if.then3.i, %if.else11.i
  %.sink13.i = phi i64 [ 2, %if.then3.i ], [ 1, %if.else11.i ]
  %.sink12.i = phi i64 [ 12, %if.then3.i ], [ 2, %if.else11.i ]
  %.sink.i = phi i64 [ 13, %if.then3.i ], [ 3, %if.else11.i ]
  %arrayidx16.i = getelementptr i8, ptr %in_buf, i64 %.sink13.i
  %sense.sroa.0.0.i = load i8, ptr %arrayidx16.i, align 1
  switch i8 %sense.sroa.0.0.i, label %sw.default.i [
    i8 0, label %return
    i8 1, label %return
    i8 6, label %return
    i8 11, label %return
    i8 2, label %sw.epilog.i
    i8 5, label %sw.epilog.i
    i8 7, label %sw.epilog.i
  ]

sw.default.i:                                     ; preds = %scsi_parse_sense_buf.exit
  br label %return

sw.epilog.i:                                      ; preds = %scsi_parse_sense_buf.exit, %scsi_parse_sense_buf.exit, %scsi_parse_sense_buf.exit
  %arrayidx18.i = getelementptr i8, ptr %in_buf, i64 %.sink12.i
  %sense.sroa.3.0.i = load i8, ptr %arrayidx18.i, align 1
  %2 = zext i8 %sense.sroa.3.0.i to i16
  %3 = shl nuw i16 %2, 8
  %arrayidx20.i = getelementptr i8, ptr %in_buf, i64 %.sink.i
  %sense.sroa.5.0.i = load i8, ptr %arrayidx20.i, align 1
  %4 = zext i8 %sense.sroa.5.0.i to i16
  %or.i = or disjoint i16 %3, %4
  switch i16 %or.i, label %sw.default3.i [
    i16 6656, label %return
    i16 8192, label %return
    i16 9216, label %return
    i16 9472, label %return
    i16 9728, label %return
    i16 8452, label %return
    i16 8453, label %return
    i16 8454, label %return
    i16 21774, label %return
    i16 1025, label %return
    i16 1026, label %return
  ]

sw.default3.i:                                    ; preds = %sw.epilog.i
  br label %return

return:                                           ; preds = %if.else11.i, %if.then3.i, %sw.default3.i, %sw.epilog.i, %sw.epilog.i, %sw.epilog.i, %sw.epilog.i, %sw.epilog.i, %sw.epilog.i, %sw.epilog.i, %sw.epilog.i, %sw.epilog.i, %sw.epilog.i, %sw.epilog.i, %sw.default.i, %scsi_parse_sense_buf.exit, %scsi_parse_sense_buf.exit, %scsi_parse_sense_buf.exit, %scsi_parse_sense_buf.exit, %entry
  %retval.0 = phi i1 [ false, %entry ], [ false, %sw.default.i ], [ false, %sw.default3.i ], [ true, %scsi_parse_sense_buf.exit ], [ true, %scsi_parse_sense_buf.exit ], [ true, %scsi_parse_sense_buf.exit ], [ true, %scsi_parse_sense_buf.exit ], [ true, %sw.epilog.i ], [ true, %sw.epilog.i ], [ true, %sw.epilog.i ], [ true, %sw.epilog.i ], [ true, %sw.epilog.i ], [ true, %sw.epilog.i ], [ true, %sw.epilog.i ], [ true, %sw.epilog.i ], [ true, %sw.epilog.i ], [ true, %sw.epilog.i ], [ true, %sw.epilog.i ], [ true, %if.then3.i ], [ true, %if.else11.i ]
  ret i1 %retval.0
}